target datalayout = "e-m:e-p270:32:32-p271:32:32-p272:64:64-i64:64-i128:128-f80:128-n8:16:32:64-S128"
target triple = "x86_64-pc-linux-gnu"

%struct.private_data = type { i32, %struct.bz_stream, i64, ptr, i64 }
%struct.bz_stream = type { ptr, i32, i32, i32, ptr, i32, i32, i32, ptr, ptr, ptr, ptr }
%struct.archive_write_filter = type { i64, ptr, ptr, ptr, ptr, ptr, ptr, ptr, ptr, ptr, ptr, i32, i32, i32, i32 }

@.str.3 = private unnamed_addr constant [18 x i8] c"compression-level\00", align 1

; Function Attrs: nounwind uwtable
define internal i32 @archive_compressor_bzip2_options(ptr noundef %0, ptr noundef %1, ptr noundef %2) #0 {
  %4 = alloca i32, align 4
  %5 = alloca ptr, align 8
  %6 = alloca ptr, align 8
  %7 = alloca ptr, align 8
  %8 = alloca ptr, align 8
  %9 = alloca i32, align 4
  store ptr %0, ptr %5, align 8, !tbaa !11
  store ptr %1, ptr %6, align 8, !tbaa !30
  store ptr %2, ptr %7, align 8, !tbaa !30
  call void @llvm.lifetime.start.p0(i64 8, ptr %8) #8
  %10 = load ptr, ptr %5, align 8, !tbaa !11
  %11 = getelementptr inbounds nuw %struct.archive_write_filter, ptr %10, i32 0, i32 9
  %12 = load ptr, ptr %11, align 8, !tbaa !22
  store ptr %12, ptr %8, align 8, !tbaa !15
  %13 = load ptr, ptr %6, align 8, !tbaa !30
  %14 = call i32 @strcmp(ptr noundef %13, ptr noundef @.str.3) #10
  %15 = icmp eq i32 %14, 0
  br i1 %15, label %16, label %54

16:                                               ; preds = %3
  %17 = load ptr, ptr %7, align 8, !tbaa !30
  %18 = icmp eq ptr %17, null
  br i1 %18, label %37, label %19

19:                                               ; preds = %16
  %20 = load ptr, ptr %7, align 8, !tbaa !30
  %21 = getelementptr inbounds i8, ptr %20, i64 0
  %22 = load i8, ptr %21, align 1, !tbaa !31
  %23 = sext i8 %22 to i32
  %24 = icmp sge i32 %23, 48
  br i1 %24, label %25, label %37

25:                                               ; preds = %19
  %26 = load ptr, ptr %7, align 8, !tbaa !30
  %27 = getelementptr inbounds i8, ptr %26, i64 0
  %28 = load i8, ptr %27, align 1, !tbaa !31
  %29 = sext i8 %28 to i32
  %30 = icmp sle i32 %29, 57
  br i1 %30, label %31, label %37

31:                                               ; preds = %25
  %32 = load ptr, ptr %7, align 8, !tbaa !30
  %33 = getelementptr inbounds i8, ptr %32, i64 1
  %34 = load i8, ptr %33, align 1, !tbaa !31
  %35 = sext i8 %34 to i32
  %36 = icmp ne i32 %35, 0
  br i1 %36, label %37, label %38

37:                                               ; preds = %31, %25, %19, %16
  store i32 -20, ptr %4, align 4
  store i32 1, ptr %9, align 4
  br label %55

38:                                               ; preds = %31
  %39 = load ptr, ptr %7, align 8, !tbaa !30
  %40 = getelementptr inbounds i8, ptr %39, i64 0
  %41 = load i8, ptr %40, align 1, !tbaa !31
  %42 = sext i8 %41 to i32
  %43 = sub nsw i32 %42, 48
  %44 = load ptr, ptr %8, align 8, !tbaa !15
  %45 = getelementptr inbounds nuw %struct.private_data, ptr %44, i32 0, i32 0
  store i32 %43, ptr %45, align 8, !tbaa !17
  %46 = load ptr, ptr %8, align 8, !tbaa !15
  %47 = getelementptr inbounds nuw %struct.private_data, ptr %46, i32 0, i32 0
  %48 = load i32, ptr %47, align 8, !tbaa !17
  %49 = icmp slt i32 %48, 1
  br i1 %49, label %50, label %53

50:                                               ; preds = %38
  %51 = load ptr, ptr %8, align 8, !tbaa !15
  %52 = getelementptr inbounds nuw %struct.private_data, ptr %51, i32 0, i32 0
  store i32 1, ptr %52, align 8, !tbaa !17
  br label %53

53:                                               ; preds = %50, %38
  store i32 0, ptr %4, align 4
  store i32 1, ptr %9, align 4
  br label %55

54:                                               ; preds = %3
  store i32 -20, ptr %4, align 4
  store i32 1, ptr %9, align 4
  br label %55

55:                                               ; preds = %54, %53, %37
  call void @llvm.lifetime.end.p0(i64 8, ptr %8) #8
  %56 = load i32, ptr %4, align 4
  ret i32 %56
}