; Function Attrs: mustprogress nofree nounwind willreturn memory(write, argmem: readwrite, inaccessiblemem: none) uwtable
define internal range(i32 -20, 1) i32 @archive_compressor_bzip2_options(ptr noundef readonly captures(none) %0, ptr noundef readonly captures(none) %1, ptr noundef readonly %2) #3 {
  %4 = getelementptr inbounds nuw i8, ptr %0, i64 72
  %5 = load ptr, ptr %4, align 8, !tbaa !13
  %6 = tail call i32 @strcmp(ptr noundef nonnull dereferenceable(1) %1, ptr noundef nonnull dereferenceable(18) @.str.3) #11
  %7 = icmp ne i32 %6, 0
  %8 = icmp eq ptr %2, null
  %or.cond12 = or i1 %8, %7
  br i1 %or.cond12, label %17, label %9

9:                                                ; preds = %3
  %10 = load i8, ptr %2, align 1, !tbaa !23
  %11 = add i8 %10, -48
  %or.cond = icmp ult i8 %11, 10
  br i1 %or.cond, label %12, label %17

12:                                               ; preds = %9
  %13 = getelementptr inbounds nuw i8, ptr %2, i64 1
  %14 = load i8, ptr %13, align 1, !tbaa !23
  %.not = icmp eq i8 %14, 0
  br i1 %.not, label %15, label %17

15:                                               ; preds = %12
  %16 = icmp eq i8 %10, 48
  %narrow13 = select i1 %16, i8 1, i8 %11
  %spec.select = zext nneg i8 %narrow13 to i32
  store i32 %spec.select, ptr %5, align 8, !tbaa !4
  br label %17

17:                                               ; preds = %3, %9, %12, %15
  %.0 = phi i32 [ 0, %15 ], [ -20, %12 ], [ -20, %9 ], [ -20, %3 ]
  ret i32 %.0
}